target datalayout = "e-m:e-p270:32:32-p271:32:32-p272:64:64-i64:64-i128:128-f80:128-n8:16:32:64-S128"
target triple = "x86_64-pc-linux-gnu"

%struct.dict = type { ptr, [2 x ptr], [2 x i64], i64, i16, [2 x i8], i16, [0 x ptr] }
%struct.dictEntry = type { ptr, %union.anon, ptr }
%union.anon = type { ptr }
%struct.dictEntryNoValue = type { ptr, ptr }
%struct.dictStats = type { i32, i64, i64, i64, i64, i64, ptr }

; Function Attrs: inlinehint nounwind uwtable
define internal ptr @decodeMaskedPtr(ptr noundef %0) #11 {
  %2 = alloca ptr, align 8
  store ptr %0, ptr %2, align 8, !tbaa !36
  %3 = load ptr, ptr %2, align 8, !tbaa !36
  %4 = ptrtoint ptr %3 to i64
  %5 = and i64 %4, -8
  %6 = inttoptr i64 %5 to ptr
  ret ptr %6
}

; Function Attrs: inlinehint nounwind uwtable
define internal ptr @decodeEntryNoValue(ptr noundef %0) #11 {
  %2 = alloca ptr, align 8
  store ptr %0, ptr %2, align 8, !tbaa !36
  %3 = load ptr, ptr %2, align 8, !tbaa !36
  %4 = call ptr @decodeMaskedPtr(ptr noundef %3)
  ret ptr %4
}

; Function Attrs: inlinehint nounwind uwtable
define internal i32 @entryIsNoValue(ptr noundef %0) #11 {
  %2 = alloca ptr, align 8
  store ptr %0, ptr %2, align 8, !tbaa !36
  %3 = load ptr, ptr %2, align 8, !tbaa !36
  %4 = ptrtoint ptr %3 to i64
  %5 = and i64 %4, 7
  %6 = icmp eq i64 %5, 4
  %7 = zext i1 %6 to i32
  ret i32 %7
}

; Function Attrs: inlinehint nounwind uwtable
define internal i32 @entryIsKey(ptr noundef %0) #11 {
  %2 = alloca ptr, align 8
  store ptr %0, ptr %2, align 8, !tbaa !36
  %3 = load ptr, ptr %2, align 8, !tbaa !36
  %4 = ptrtoint ptr %3 to i64
  %5 = and i64 %4, 3
  %6 = trunc i64 %5 to i32
  ret i32 %6
}

; Function Attrs: nounwind uwtable
define internal ptr @dictGetNext(ptr noundef %0) #0 {
  %2 = alloca ptr, align 8
  %3 = alloca ptr, align 8
  store ptr %0, ptr %3, align 8, !tbaa !36
  %4 = load ptr, ptr %3, align 8, !tbaa !36
  %5 = call i32 @entryIsKey(ptr noundef %4)
  %6 = icmp ne i32 %5, 0
  br i1 %6, label %7, label %8

7:                                                ; preds = %1
  store ptr null, ptr %2, align 8
  br label %21

8:                                                ; preds = %1
  %9 = load ptr, ptr %3, align 8, !tbaa !36
  %10 = call i32 @entryIsNoValue(ptr noundef %9)
  %11 = icmp ne i32 %10, 0
  br i1 %11, label %12, label %17

12:                                               ; preds = %8
  %13 = load ptr, ptr %3, align 8, !tbaa !36
  %14 = call ptr @decodeEntryNoValue(ptr noundef %13)
  %15 = getelementptr inbounds nuw %struct.dictEntryNoValue, ptr %14, i32 0, i32 1
  %16 = load ptr, ptr %15, align 8, !tbaa !56
  store ptr %16, ptr %2, align 8
  br label %21

17:                                               ; preds = %8
  %18 = load ptr, ptr %3, align 8, !tbaa !36
  %19 = getelementptr inbounds nuw %struct.dictEntry, ptr %18, i32 0, i32 2
  %20 = load ptr, ptr %19, align 8, !tbaa !53
  store ptr %20, ptr %2, align 8
  br label %21

21:                                               ; preds = %17, %12, %7
  %22 = load ptr, ptr %2, align 8
  ret ptr %22
}

; Function Attrs: nounwind uwtable
define dso_local ptr @dictGetStatsHt(ptr noundef %0, i32 noundef %1, i32 noundef %2) #0 {
  %4 = alloca ptr, align 8
  %5 = alloca ptr, align 8
  %6 = alloca i32, align 4
  %7 = alloca i32, align 4
  %8 = alloca ptr, align 8
  %9 = alloca ptr, align 8
  %10 = alloca i32, align 4
  %11 = alloca i64, align 8
  %12 = alloca ptr, align 8
  %13 = alloca i64, align 8
  store ptr %0, ptr %5, align 8, !tbaa !18
  store i32 %1, ptr %6, align 4, !tbaa !29
  store i32 %2, ptr %7, align 4, !tbaa !29
  call void @llvm.lifetime.start.p0(i64 8, ptr %8) #14
  %14 = call noalias ptr @zcalloc(i64 noundef 400) #15
  store ptr %14, ptr %8, align 8, !tbaa !45
  call void @llvm.lifetime.start.p0(i64 8, ptr %9) #14
  %15 = call noalias ptr @zcalloc(i64 noundef 56) #15
  store ptr %15, ptr %9, align 8, !tbaa !111
  %16 = load i32, ptr %6, align 4, !tbaa !29
  %17 = load ptr, ptr %9, align 8, !tbaa !111
  %18 = getelementptr inbounds nuw %struct.dictStats, ptr %17, i32 0, i32 0
  store i32 %16, ptr %18, align 8, !tbaa !121
  %19 = load ptr, ptr %8, align 8, !tbaa !45
  %20 = load ptr, ptr %9, align 8, !tbaa !111
  %21 = getelementptr inbounds nuw %struct.dictStats, ptr %20, i32 0, i32 6
  store ptr %19, ptr %21, align 8, !tbaa !113
  %22 = load ptr, ptr %5, align 8, !tbaa !18
  %23 = getelementptr inbounds nuw %struct.dict, ptr %22, i32 0, i32 5
  %24 = load i32, ptr %6, align 4, !tbaa !29
  %25 = sext i32 %24 to i64
  %26 = getelementptr inbounds [2 x i8], ptr %23, i64 0, i64 %25
  %27 = load i8, ptr %26, align 1, !tbaa !25
  %28 = sext i8 %27 to i32
  %29 = icmp eq i32 %28, -1
  br i1 %29, label %30, label %31

30:                                               ; preds = %3
  br label %41

31:                                               ; preds = %3
  %32 = load ptr, ptr %5, align 8, !tbaa !18
  %33 = getelementptr inbounds nuw %struct.dict, ptr %32, i32 0, i32 5
  %34 = load i32, ptr %6, align 4, !tbaa !29
  %35 = sext i32 %34 to i64
  %36 = getelementptr inbounds [2 x i8], ptr %33, i64 0, i64 %35
  %37 = load i8, ptr %36, align 1, !tbaa !25
  %38 = sext i8 %37 to i32
  %39 = zext i32 %38 to i64
  %40 = shl i64 1, %39
  br label %41

41:                                               ; preds = %31, %30
  %42 = phi i64 [ 0, %30 ], [ %40, %31 ]
  %43 = load ptr, ptr %9, align 8, !tbaa !111
  %44 = getelementptr inbounds nuw %struct.dictStats, ptr %43, i32 0, i32 4
  store i64 %42, ptr %44, align 8, !tbaa !118
  %45 = load ptr, ptr %5, align 8, !tbaa !18
  %46 = getelementptr inbounds nuw %struct.dict, ptr %45, i32 0, i32 2
  %47 = load i32, ptr %6, align 4, !tbaa !29
  %48 = sext i32 %47 to i64
  %49 = getelementptr inbounds [2 x i64], ptr %46, i64 0, i64 %48
  %50 = load i64, ptr %49, align 8, !tbaa !11
  %51 = load ptr, ptr %9, align 8, !tbaa !111
  %52 = getelementptr inbounds nuw %struct.dictStats, ptr %51, i32 0, i32 5
  store i64 %50, ptr %52, align 8, !tbaa !119
  %53 = load i32, ptr %7, align 4, !tbaa !29
  %54 = icmp ne i32 %53, 0
  br i1 %54, label %57, label %55

55:                                               ; preds = %41
  %56 = load ptr, ptr %9, align 8, !tbaa !111
  store ptr %56, ptr %4, align 8
  store i32 1, ptr %10, align 4
  br label %156

57:                                               ; preds = %41
  call void @llvm.lifetime.start.p0(i64 8, ptr %11) #14
  store i64 0, ptr %11, align 8, !tbaa !11
  br label %58

58:                                               ; preds = %151, %57
  %59 = load i64, ptr %11, align 8, !tbaa !11
  %60 = load ptr, ptr %5, align 8, !tbaa !18
  %61 = getelementptr inbounds nuw %struct.dict, ptr %60, i32 0, i32 5
  %62 = load i32, ptr %6, align 4, !tbaa !29
  %63 = sext i32 %62 to i64
  %64 = getelementptr inbounds [2 x i8], ptr %61, i64 0, i64 %63
  %65 = load i8, ptr %64, align 1, !tbaa !25
  %66 = sext i8 %65 to i32
  %67 = icmp eq i32 %66, -1
  br i1 %67, label %68, label %69

68:                                               ; preds = %58
  br label %79

69:                                               ; preds = %58
  %70 = load ptr, ptr %5, align 8, !tbaa !18
  %71 = getelementptr inbounds nuw %struct.dict, ptr %70, i32 0, i32 5
  %72 = load i32, ptr %6, align 4, !tbaa !29
  %73 = sext i32 %72 to i64
  %74 = getelementptr inbounds [2 x i8], ptr %71, i64 0, i64 %73
  %75 = load i8, ptr %74, align 1, !tbaa !25
  %76 = sext i8 %75 to i32
  %77 = zext i32 %76 to i64
  %78 = shl i64 1, %77
  br label %79

79:                                               ; preds = %69, %68
  %80 = phi i64 [ 0, %68 ], [ %78, %69 ]
  %81 = icmp ult i64 %59, %80
  br i1 %81, label %83, label %82

82:                                               ; preds = %79
  store i32 2, ptr %10, align 4
  call void @llvm.lifetime.end.p0(i64 8, ptr %11) #14
  br label %154

83:                                               ; preds = %79
  call void @llvm.lifetime.start.p0(i64 8, ptr %12) #14
  %84 = load ptr, ptr %5, align 8, !tbaa !18
  %85 = getelementptr inbounds nuw %struct.dict, ptr %84, i32 0, i32 1
  %86 = load i32, ptr %6, align 4, !tbaa !29
  %87 = sext i32 %86 to i64
  %88 = getelementptr inbounds [2 x ptr], ptr %85, i64 0, i64 %87
  %89 = load ptr, ptr %88, align 8, !tbaa !30
  %90 = load i64, ptr %11, align 8, !tbaa !11
  %91 = getelementptr inbounds nuw ptr, ptr %89, i64 %90
  %92 = load ptr, ptr %91, align 8, !tbaa !36
  %93 = icmp eq ptr %92, null
  br i1 %93, label %94, label %99

94:                                               ; preds = %83
  %95 = load ptr, ptr %8, align 8, !tbaa !45
  %96 = getelementptr inbounds i64, ptr %95, i64 0
  %97 = load i64, ptr %96, align 8, !tbaa !11
  %98 = add i64 %97, 1
  store i64 %98, ptr %96, align 8, !tbaa !11
  store i32 4, ptr %10, align 4
  br label %148

99:                                               ; preds = %83
  %100 = load ptr, ptr %9, align 8, !tbaa !111
  %101 = getelementptr inbounds nuw %struct.dictStats, ptr %100, i32 0, i32 1
  %102 = load i64, ptr %101, align 8, !tbaa !115
  %103 = add i64 %102, 1
  store i64 %103, ptr %101, align 8, !tbaa !115
  call void @llvm.lifetime.start.p0(i64 8, ptr %13) #14
  store i64 0, ptr %13, align 8, !tbaa !11
  %104 = load ptr, ptr %5, align 8, !tbaa !18
  %105 = getelementptr inbounds nuw %struct.dict, ptr %104, i32 0, i32 1
  %106 = load i32, ptr %6, align 4, !tbaa !29
  %107 = sext i32 %106 to i64
  %108 = getelementptr inbounds [2 x ptr], ptr %105, i64 0, i64 %107
  %109 = load ptr, ptr %108, align 8, !tbaa !30
  %110 = load i64, ptr %11, align 8, !tbaa !11
  %111 = getelementptr inbounds nuw ptr, ptr %109, i64 %110
  %112 = load ptr, ptr %111, align 8, !tbaa !36
  store ptr %112, ptr %12, align 8, !tbaa !36
  br label %113

113:                                              ; preds = %116, %99
  %114 = load ptr, ptr %12, align 8, !tbaa !36
  %115 = icmp ne ptr %114, null
  br i1 %115, label %116, label %121

116:                                              ; preds = %113
  %117 = load i64, ptr %13, align 8, !tbaa !11
  %118 = add i64 %117, 1
  store i64 %118, ptr %13, align 8, !tbaa !11
  %119 = load ptr, ptr %12, align 8, !tbaa !36
  %120 = call ptr @dictGetNext(ptr noundef %119)
  store ptr %120, ptr %12, align 8, !tbaa !36
  br label %113, !llvm.loop !122

121:                                              ; preds = %113
  %122 = load ptr, ptr %8, align 8, !tbaa !45
  %123 = load i64, ptr %13, align 8, !tbaa !11
  %124 = icmp ult i64 %123, 50
  br i1 %124, label %125, label %127

125:                                              ; preds = %121
  %126 = load i64, ptr %13, align 8, !tbaa !11
  br label %128

127:                                              ; preds = %121
  br label %128

128:                                              ; preds = %127, %125
  %129 = phi i64 [ %126, %125 ], [ 49, %127 ]
  %130 = getelementptr inbounds nuw i64, ptr %122, i64 %129
  %131 = load i64, ptr %130, align 8, !tbaa !11
  %132 = add i64 %131, 1
  store i64 %132, ptr %130, align 8, !tbaa !11
  %133 = load i64, ptr %13, align 8, !tbaa !11
  %134 = load ptr, ptr %9, align 8, !tbaa !111
  %135 = getelementptr inbounds nuw %struct.dictStats, ptr %134, i32 0, i32 2
  %136 = load i64, ptr %135, align 8, !tbaa !116
  %137 = icmp ugt i64 %133, %136
  br i1 %137, label %138, label %142

138:                                              ; preds = %128
  %139 = load i64, ptr %13, align 8, !tbaa !11
  %140 = load ptr, ptr %9, align 8, !tbaa !111
  %141 = getelementptr inbounds nuw %struct.dictStats, ptr %140, i32 0, i32 2
  store i64 %139, ptr %141, align 8, !tbaa !116
  br label %142

142:                                              ; preds = %138, %128
  %143 = load i64, ptr %13, align 8, !tbaa !11
  %144 = load ptr, ptr %9, align 8, !tbaa !111
  %145 = getelementptr inbounds nuw %struct.dictStats, ptr %144, i32 0, i32 3
  %146 = load i64, ptr %145, align 8, !tbaa !117
  %147 = add i64 %146, %143
  store i64 %147, ptr %145, align 8, !tbaa !117
  call void @llvm.lifetime.end.p0(i64 8, ptr %13) #14
  store i32 0, ptr %10, align 4
  br label %148

148:                                              ; preds = %142, %94
  call void @llvm.lifetime.end.p0(i64 8, ptr %12) #14
  %149 = load i32, ptr %10, align 4
  switch i32 %149, label %158 [
    i32 0, label %150
    i32 4, label %151
  ]

150:                                              ; preds = %148
  br label %151

151:                                              ; preds = %150, %148
  %152 = load i64, ptr %11, align 8, !tbaa !11
  %153 = add i64 %152, 1
  store i64 %153, ptr %11, align 8, !tbaa !11
  br label %58, !llvm.loop !123

154:                                              ; preds = %82
  %155 = load ptr, ptr %9, align 8, !tbaa !111
  store ptr %155, ptr %4, align 8
  store i32 1, ptr %10, align 4
  br label %156

156:                                              ; preds = %154, %55
  call void @llvm.lifetime.end.p0(i64 8, ptr %9) #14
  call void @llvm.lifetime.end.p0(i64 8, ptr %8) #14
  %157 = load ptr, ptr %4, align 8
  ret ptr %157

158:                                              ; preds = %148
  unreachable
}