; Function Attrs: nounwind uwtable
define dso_local noalias noundef ptr @dictGetStatsHt(ptr noundef readonly captures(none) %0, i32 noundef %1, i32 noundef %2) local_unnamed_addr #3 {
  %4 = tail call noalias dereferenceable_or_null(400) ptr @zcalloc(i64 noundef 400) #26
  %5 = tail call noalias dereferenceable_or_null(56) ptr @zcalloc(i64 noundef 56) #26
  store i32 %1, ptr %5, align 8, !tbaa !106
  %6 = getelementptr inbounds nuw i8, ptr %5, i64 48
  store ptr %4, ptr %6, align 8, !tbaa !97
  %7 = getelementptr inbounds nuw i8, ptr %0, i64 50
  %8 = sext i32 %1 to i64
  %9 = getelementptr inbounds [2 x i8], ptr %7, i64 0, i64 %8
  %10 = load i8, ptr %9, align 1, !tbaa !13
  %11 = icmp ne i8 %10, -1
  %12 = sext i8 %10 to i64
  %13 = and i64 %12, 4294967295
  %14 = shl nuw i64 1, %13
  %15 = select i1 %11, i64 %14, i64 0
  %16 = getelementptr inbounds nuw i8, ptr %5, i64 32
  store i64 %15, ptr %16, align 8, !tbaa !103
  %17 = getelementptr inbounds nuw i8, ptr %0, i64 24
  %18 = getelementptr inbounds [2 x i64], ptr %17, i64 0, i64 %8
  %19 = load i64, ptr %18, align 8, !tbaa !14
  %20 = getelementptr inbounds nuw i8, ptr %5, i64 40
  store i64 %19, ptr %20, align 8, !tbaa !104
  %.not = icmp ne i32 %2, 0
  %or.cond = select i1 %.not, i1 %11, i1 false
  br i1 %or.cond, label %.lr.ph, label %.loopexit

.lr.ph:                                           ; preds = %3
  %21 = getelementptr inbounds nuw i8, ptr %0, i64 8
  %22 = getelementptr inbounds [2 x ptr], ptr %21, i64 0, i64 %8
  %23 = load ptr, ptr %22, align 8, !tbaa !11
  %24 = getelementptr inbounds nuw i8, ptr %5, i64 8
  %25 = getelementptr inbounds nuw i8, ptr %5, i64 16
  %26 = getelementptr inbounds nuw i8, ptr %5, i64 24
  br label %27

27:                                               ; preds = %.lr.ph, %53
  %.04249 = phi i64 [ 0, %.lr.ph ], [ %54, %53 ]
  %28 = getelementptr inbounds nuw ptr, ptr %23, i64 %.04249
  %29 = load ptr, ptr %28, align 8, !tbaa !31
  %30 = icmp eq ptr %29, null
  br i1 %30, label %31, label %34

31:                                               ; preds = %27
  %32 = load i64, ptr %4, align 8, !tbaa !14
  %33 = add i64 %32, 1
  store i64 %33, ptr %4, align 8, !tbaa !14
  br label %53

34:                                               ; preds = %27
  %35 = load i64, ptr %24, align 8, !tbaa !100
  %36 = add i64 %35, 1
  store i64 %36, ptr %24, align 8, !tbaa !100
  br label %37

37:                                               ; preds = %34, %dictGetNext.exit
  %.048 = phi i64 [ 0, %34 ], [ %38, %dictGetNext.exit ]
  %.04147 = phi ptr [ %29, %34 ], [ %.0.i, %dictGetNext.exit ]
  %38 = add i64 %.048, 1
  %39 = ptrtoint ptr %.04147 to i64
  %40 = and i64 %39, 3
  %.not.i = icmp eq i64 %40, 0
  br i1 %.not.i, label %dictGetNext.exit, label %dictGetNext.exit.thread

dictGetNext.exit:                                 ; preds = %37
  %41 = and i64 %39, 4
  %.not5.i = icmp eq i64 %41, 0
  %42 = and i64 %39, -8
  %43 = inttoptr i64 %42 to ptr
  %44 = getelementptr inbounds nuw i8, ptr %43, i64 8
  %45 = getelementptr inbounds nuw i8, ptr %.04147, i64 16
  %.0.i.in = select i1 %.not5.i, ptr %45, ptr %44
  %.0.i = load ptr, ptr %.0.i.in, align 8, !tbaa !31
  %.not46 = icmp eq ptr %.0.i, null
  br i1 %.not46, label %dictGetNext.exit.thread, label %37, !llvm.loop !107

dictGetNext.exit.thread:                          ; preds = %37, %dictGetNext.exit
  %46 = tail call i64 @llvm.umin.i64(i64 %38, i64 49)
  %47 = getelementptr inbounds nuw i64, ptr %4, i64 %46
  %48 = load i64, ptr %47, align 8, !tbaa !14
  %49 = add i64 %48, 1
  store i64 %49, ptr %47, align 8, !tbaa !14
  %50 = load i64, ptr %25, align 8, !tbaa !101
  %spec.store.select = tail call i64 @llvm.umax.i64(i64 %38, i64 %50)
  store i64 %spec.store.select, ptr %25, align 8
  %51 = load i64, ptr %26, align 8, !tbaa !102
  %52 = add i64 %51, %38
  store i64 %52, ptr %26, align 8, !tbaa !102
  br label %53

53:                                               ; preds = %dictGetNext.exit.thread, %31
  %54 = add nuw i64 %.04249, 1
  %exitcond.not = icmp eq i64 %54, %14
  br i1 %exitcond.not, label %.loopexit, label %27, !llvm.loop !108

.loopexit:                                        ; preds = %53, %3
  ret ptr %5
}